; Function Attrs: mustprogress null_pointer_is_valid sspstrong uwtable
define internal void @"_ZN9QtPrivate18QFunctorSlotObjectIZN19WiresharkMainWindow22connectHelpMenuActionsEvE3$_6Li0ENS_4ListIJEEEvE4implEiPNS_15QSlotObjectBaseEP7QObjectPPvPb"(i32 noundef %0, ptr noundef %1, ptr readnone captures(none) %2, ptr readnone captures(none) %3, ptr readnone captures(none) %4) #0 align 2 {
  switch i32 %0, label %11 [
    i32 0, label %6
    i32 1, label %9
  ]

6:                                                ; preds = %5
  %7 = icmp eq ptr %1, null
  br i1 %7, label %11, label %8

8:                                                ; preds = %6
  tail call void @_ZdlPvm(ptr noundef nonnull %1, i64 noundef 24) #26
  br label %11

9:                                                ; preds = %5
  %10 = load ptr, ptr @mainApp, align 8
  tail call void @_ZN15MainApplication15helpTopicActionE14topic_action_e(ptr noundef align 8 dereferenceable_or_null(216) %10, i32 noundef 104)
  br label %11

11:                                               ; preds = %6, %8, %9, %5
  ret void
}